target datalayout = "e-m:e-p270:32:32-p271:32:32-p272:64:64-i64:64-i128:128-f80:128-n8:16:32:64-S128"
target triple = "x86_64-pc-linux-gnu"

; Function Attrs: nounwind uwtable
define dso_local zeroext i1 @IsPreferredType(i8 noundef signext %0, i32 noundef %1) #0 {
  %3 = alloca i1, align 1
  %4 = alloca i8, align 1
  %5 = alloca i32, align 4
  %6 = alloca i8, align 1
  %7 = alloca i8, align 1
  %8 = alloca i32, align 4
  store i8 %0, ptr %4, align 1
  store i32 %1, ptr %5, align 4
  call void @llvm.lifetime.start.p0(i64 1, ptr %6) #6
  call void @llvm.lifetime.start.p0(i64 1, ptr %7) #6
  %9 = load i32, ptr %5, align 4
  call void @get_type_category_preferred(i32 noundef %9, ptr noundef %6, ptr noundef %7)
  %10 = load i8, ptr %4, align 1
  %11 = sext i8 %10 to i32
  %12 = load i8, ptr %6, align 1
  %13 = sext i8 %12 to i32
  %14 = icmp eq i32 %11, %13
  br i1 %14, label %19, label %15

15:                                               ; preds = %2
  %16 = load i8, ptr %4, align 1
  %17 = sext i8 %16 to i32
  %18 = icmp eq i32 %17, 0
  br i1 %18, label %19, label %22

19:                                               ; preds = %15, %2
  %20 = load i8, ptr %7, align 1, !range !7, !noundef !8
  %21 = trunc i8 %20 to i1
  store i1 %21, ptr %3, align 1
  store i32 1, ptr %8, align 4
  br label %23

22:                                               ; preds = %15
  store i1 false, ptr %3, align 1
  store i32 1, ptr %8, align 4
  br label %23

23:                                               ; preds = %22, %19
  call void @llvm.lifetime.end.p0(i64 1, ptr %7) #6
  call void @llvm.lifetime.end.p0(i64 1, ptr %6) #6
  %24 = load i1, ptr %3, align 1
  ret i1 %24
}