; Function Attrs: nounwind uwtable
define dso_local zeroext i1 @IsPreferredType(i8 noundef signext %0, i32 noundef %1) local_unnamed_addr #0 {
  %3 = alloca i8, align 1
  %4 = alloca i8, align 1
  call void @llvm.lifetime.start.p0(i64 1, ptr nonnull %3) #5
  call void @llvm.lifetime.start.p0(i64 1, ptr nonnull %4) #5
  call void @get_type_category_preferred(i32 noundef %1, ptr noundef nonnull %3, ptr noundef nonnull %4) #5
  %5 = load i8, ptr %3, align 1
  %6 = icmp eq i8 %0, %5
  %7 = icmp eq i8 %0, 0
  %or.cond = or i1 %7, %6
  br i1 %or.cond, label %8, label %11

8:                                                ; preds = %2
  %9 = load i8, ptr %4, align 1, !range !7, !noundef !8
  %10 = trunc nuw i8 %9 to i1
  br label %11

11:                                               ; preds = %2, %8
  %.0 = phi i1 [ %10, %8 ], [ false, %2 ]
  call void @llvm.lifetime.end.p0(i64 1, ptr nonnull %4) #5
  call void @llvm.lifetime.end.p0(i64 1, ptr nonnull %3) #5
  ret i1 %.0
}